target datalayout = "e-m:e-p270:32:32-p271:32:32-p272:64:64-i64:64-i128:128-f80:128-n8:16:32:64-S128"
target triple = "x86_64-pc-linux-gnu"

%struct.AVFilterContext = type { ptr, ptr, ptr, ptr, ptr, i32, ptr, ptr, i32, ptr, ptr, i32, i32, ptr, ptr, ptr, ptr, i32, ptr, i32, i32 }
%struct.FieldMatchContext = type { ptr, ptr, ptr, ptr, ptr, ptr, ptr, [2 x i32], [2 x i32], [2 x i32], i32, i32, i64, i64, i32, i32, i32, i32, i32, i32, i32, i64, double, i32, i32, i32, i32, i32, i32, i32, [4 x ptr], [4 x i32], [4 x ptr], [4 x i32], ptr, i32, i32, ptr }
%struct.AVFilterFormatsConfig = type { ptr, ptr, ptr, ptr, ptr }
%struct.AVFilterLink = type { ptr, ptr, ptr, ptr, i32, i32, i32, i32, %struct.AVRational, i32, i32, i32, %struct.AVChannelLayout, %struct.AVRational, ptr, i32, %struct.AVFilterFormatsConfig, %struct.AVFilterFormatsConfig }
%struct.AVChannelLayout = type { i32, i32, %union.anon.1, ptr }
%union.anon.1 = type { i64 }
%struct.AVRational = type { i32, i32 }
%struct.AVPixFmtDescriptor = type { ptr, i8, i8, i8, i64, [4 x %struct.AVComponentDescriptor], ptr }
%struct.AVComponentDescriptor = type { i32, i32, i32, i32, i32 }
%struct.FilterLink = type { %struct.AVFilterLink, ptr, i64, i64, i32, i32, i64, i64, i64, i64, %struct.AVRational, ptr }

; Function Attrs: inlinehint nounwind uwtable
define internal ptr @ff_filter_link(ptr noundef %0) #3 {
  %2 = alloca ptr, align 8
  store ptr %0, ptr %2, align 8, !tbaa !51
  %3 = load ptr, ptr %2, align 8, !tbaa !51
  ret ptr %3
}

; Function Attrs: nounwind uwtable
define internal i32 @config_output(ptr noundef %0) #1 {
  %2 = alloca ptr, align 8
  %3 = alloca ptr, align 8
  %4 = alloca ptr, align 8
  %5 = alloca ptr, align 8
  %6 = alloca ptr, align 8
  %7 = alloca ptr, align 8
  %8 = alloca ptr, align 8
  store ptr %0, ptr %2, align 8, !tbaa !51
  call void @llvm.lifetime.start.p0(i64 8, ptr %3) #10
  %9 = load ptr, ptr %2, align 8, !tbaa !51
  %10 = call ptr @ff_filter_link(ptr noundef %9)
  store ptr %10, ptr %3, align 8, !tbaa !59
  call void @llvm.lifetime.start.p0(i64 8, ptr %4) #10
  %11 = load ptr, ptr %2, align 8, !tbaa !51
  %12 = getelementptr inbounds nuw %struct.AVFilterLink, ptr %11, i32 0, i32 0
  %13 = load ptr, ptr %12, align 8, !tbaa !61
  store ptr %13, ptr %4, align 8, !tbaa !4
  call void @llvm.lifetime.start.p0(i64 8, ptr %5) #10
  %14 = load ptr, ptr %4, align 8, !tbaa !4
  %15 = getelementptr inbounds nuw %struct.AVFilterContext, ptr %14, i32 0, i32 9
  %16 = load ptr, ptr %15, align 8, !tbaa !9
  store ptr %16, ptr %5, align 8, !tbaa !22
  call void @llvm.lifetime.start.p0(i64 8, ptr %6) #10
  %17 = load ptr, ptr %4, align 8, !tbaa !4
  %18 = getelementptr inbounds nuw %struct.AVFilterContext, ptr %17, i32 0, i32 4
  %19 = load ptr, ptr %18, align 8, !tbaa !54
  %20 = load ptr, ptr %5, align 8, !tbaa !22
  %21 = getelementptr inbounds nuw %struct.FieldMatchContext, ptr %20, i32 0, i32 15
  %22 = load i32, ptr %21, align 4, !tbaa !25
  %23 = icmp ne i32 %22, 0
  %24 = select i1 %23, i32 1, i32 0
  %25 = sext i32 %24 to i64
  %26 = getelementptr inbounds ptr, ptr %19, i64 %25
  %27 = load ptr, ptr %26, align 8, !tbaa !51
  store ptr %27, ptr %6, align 8, !tbaa !51
  call void @llvm.lifetime.start.p0(i64 8, ptr %7) #10
  %28 = load ptr, ptr %4, align 8, !tbaa !4
  %29 = getelementptr inbounds nuw %struct.AVFilterContext, ptr %28, i32 0, i32 4
  %30 = load ptr, ptr %29, align 8, !tbaa !54
  %31 = load ptr, ptr %5, align 8, !tbaa !22
  %32 = getelementptr inbounds nuw %struct.FieldMatchContext, ptr %31, i32 0, i32 15
  %33 = load i32, ptr %32, align 4, !tbaa !25
  %34 = icmp ne i32 %33, 0
  %35 = select i1 %34, i32 1, i32 0
  %36 = sext i32 %35 to i64
  %37 = getelementptr inbounds ptr, ptr %30, i64 %36
  %38 = load ptr, ptr %37, align 8, !tbaa !51
  %39 = call ptr @ff_filter_link(ptr noundef %38)
  store ptr %39, ptr %7, align 8, !tbaa !59
  call void @llvm.lifetime.start.p0(i64 8, ptr %8) #10
  %40 = load ptr, ptr %6, align 8, !tbaa !51
  %41 = getelementptr inbounds nuw %struct.AVFilterLink, ptr %40, i32 0, i32 5
  %42 = load i32, ptr %41, align 4, !tbaa !68
  %43 = call ptr @av_pix_fmt_desc_get(i32 noundef %42)
  store ptr %43, ptr %8, align 8, !tbaa !69
  %44 = load ptr, ptr %8, align 8, !tbaa !69
  %45 = getelementptr inbounds nuw %struct.AVPixFmtDescriptor, ptr %44, i32 0, i32 5
  %46 = getelementptr inbounds [4 x %struct.AVComponentDescriptor], ptr %45, i64 0, i64 0
  %47 = getelementptr inbounds nuw %struct.AVComponentDescriptor, ptr %46, i32 0, i32 4
  %48 = load i32, ptr %47, align 8, !tbaa !71
  %49 = add nsw i32 %48, 7
  %50 = sdiv i32 %49, 8
  %51 = load ptr, ptr %5, align 8, !tbaa !22
  %52 = getelementptr inbounds nuw %struct.FieldMatchContext, ptr %51, i32 0, i32 10
  store i32 %50, ptr %52, align 8, !tbaa !73
  %53 = load ptr, ptr %2, align 8, !tbaa !51
  %54 = getelementptr inbounds nuw %struct.AVFilterLink, ptr %53, i32 0, i32 13
  %55 = load ptr, ptr %6, align 8, !tbaa !51
  %56 = getelementptr inbounds nuw %struct.AVFilterLink, ptr %55, i32 0, i32 13
  call void @llvm.memcpy.p0.p0.i64(ptr align 8 %54, ptr align 8 %56, i64 8, i1 false), !tbaa.struct !74
  %57 = load ptr, ptr %2, align 8, !tbaa !51
  %58 = getelementptr inbounds nuw %struct.AVFilterLink, ptr %57, i32 0, i32 8
  %59 = load ptr, ptr %6, align 8, !tbaa !51
  %60 = getelementptr inbounds nuw %struct.AVFilterLink, ptr %59, i32 0, i32 8
  call void @llvm.memcpy.p0.p0.i64(ptr align 8 %58, ptr align 8 %60, i64 8, i1 false), !tbaa.struct !74
  %61 = load ptr, ptr %3, align 8, !tbaa !59
  %62 = getelementptr inbounds nuw %struct.FilterLink, ptr %61, i32 0, i32 10
  %63 = load ptr, ptr %7, align 8, !tbaa !59
  %64 = getelementptr inbounds nuw %struct.FilterLink, ptr %63, i32 0, i32 10
  call void @llvm.memcpy.p0.p0.i64(ptr align 8 %62, ptr align 8 %64, i64 8, i1 false), !tbaa.struct !74
  %65 = load ptr, ptr %6, align 8, !tbaa !51
  %66 = getelementptr inbounds nuw %struct.AVFilterLink, ptr %65, i32 0, i32 6
  %67 = load i32, ptr %66, align 8, !tbaa !75
  %68 = load ptr, ptr %2, align 8, !tbaa !51
  %69 = getelementptr inbounds nuw %struct.AVFilterLink, ptr %68, i32 0, i32 6
  store i32 %67, ptr %69, align 8, !tbaa !75
  %70 = load ptr, ptr %6, align 8, !tbaa !51
  %71 = getelementptr inbounds nuw %struct.AVFilterLink, ptr %70, i32 0, i32 7
  %72 = load i32, ptr %71, align 4, !tbaa !76
  %73 = load ptr, ptr %2, align 8, !tbaa !51
  %74 = getelementptr inbounds nuw %struct.AVFilterLink, ptr %73, i32 0, i32 7
  store i32 %72, ptr %74, align 4, !tbaa !76
  call void @llvm.lifetime.end.p0(i64 8, ptr %8) #10
  call void @llvm.lifetime.end.p0(i64 8, ptr %7) #10
  call void @llvm.lifetime.end.p0(i64 8, ptr %6) #10
  call void @llvm.lifetime.end.p0(i64 8, ptr %5) #10
  call void @llvm.lifetime.end.p0(i64 8, ptr %4) #10
  call void @llvm.lifetime.end.p0(i64 8, ptr %3) #10
  ret i32 0
}