; Function Attrs: nounwind uwtable
define internal noundef i32 @config_output(ptr noundef captures(none) initializes((40, 56), (96, 104), (264, 272)) %0) #1 {
  %2 = load ptr, ptr %0, align 8, !tbaa !51
  %3 = getelementptr inbounds nuw i8, ptr %2, i64 72
  %4 = load ptr, ptr %3, align 8, !tbaa !4
  %5 = getelementptr inbounds nuw i8, ptr %2, i64 32
  %6 = load ptr, ptr %5, align 8, !tbaa !45
  %7 = getelementptr inbounds nuw i8, ptr %4, i64 108
  %8 = load i32, ptr %7, align 4, !tbaa !20
  %.not = icmp ne i32 %8, 0
  %9 = zext i1 %.not to i64
  %10 = getelementptr inbounds nuw ptr, ptr %6, i64 %9
  %11 = load ptr, ptr %10, align 8, !tbaa !42
  %12 = getelementptr inbounds nuw i8, ptr %11, i64 36
  %13 = load i32, ptr %12, align 4, !tbaa !60
  %14 = tail call ptr @av_pix_fmt_desc_get(i32 noundef %13) #10
  %15 = getelementptr inbounds nuw i8, ptr %14, i64 40
  %16 = load i32, ptr %15, align 8, !tbaa !61
  %17 = add nsw i32 %16, 7
  %18 = sdiv i32 %17, 8
  %19 = getelementptr inbounds nuw i8, ptr %4, i64 80
  store i32 %18, ptr %19, align 8, !tbaa !63
  %20 = getelementptr inbounds nuw i8, ptr %0, i64 96
  %21 = getelementptr inbounds nuw i8, ptr %11, i64 96
  %22 = load i64, ptr %21, align 8
  store i64 %22, ptr %20, align 8
  %23 = getelementptr inbounds nuw i8, ptr %0, i64 48
  %24 = getelementptr inbounds nuw i8, ptr %11, i64 48
  %25 = load i64, ptr %24, align 8
  store i64 %25, ptr %23, align 8
  %26 = getelementptr inbounds nuw i8, ptr %0, i64 264
  %27 = getelementptr inbounds nuw i8, ptr %11, i64 264
  %28 = load i64, ptr %27, align 8
  store i64 %28, ptr %26, align 8
  %29 = getelementptr inbounds nuw i8, ptr %11, i64 40
  %30 = load i32, ptr %29, align 8, !tbaa !64
  %31 = getelementptr inbounds nuw i8, ptr %0, i64 40
  store i32 %30, ptr %31, align 8, !tbaa !64
  %32 = getelementptr inbounds nuw i8, ptr %11, i64 44
  %33 = load i32, ptr %32, align 4, !tbaa !65
  %34 = getelementptr inbounds nuw i8, ptr %0, i64 44
  store i32 %33, ptr %34, align 4, !tbaa !65
  ret i32 0
}